(dp0
S'ever.'
p1
F1.0
sS'they keep'
p2
F1.0
sS'most improvn'
p3
F1.0
sS'the most'
p4
F-1.0
sS'no be'
p5
F1.0
sS'gud work am'
p6
F1.0
sS'technical issues affecting'
p7
F-1.0
sS'network na airtel'
p8
F1.0
sS'fidelity for you'
p9
F1.0
sS'sorry'
p10
F-1.0
sS'saver'
p11
F1.0
sS'u a'
p12
F1.0
sS'mega x atase'
p13
F-1.0
sS'it customers.well'
p14
F1.0
sS'network. they'
p15
F1.0
sS'network of all'
p16
F-1.0
sS'trusted guys.stop using'
p17
F-1.0
sS'vry nice ...'
p18
F1.0
sS'they have not'
p19
F-1.0
sS'solution'
p20
F-1.0
sS'woudnt'
p21
F-1.0
sS'enjoy'
p22
F0.3333333333333333
sS'i dont know'
p23
F-1.0
sS"you 're services"
p24
F-1.0
sS'`` aitel ,'
p25
F-1.0
sS'faithful and'
p26
F1.0
sS'2 be'
p27
F-1.0
sS'mega x is'
p28
F-1.0
sS'enjoy .'
p29
F1.0
sS'you forever'
p30
F-1.0
sS'its better u'
p31
F-1.0
sS'line better than'
p32
F1.0
sS'net'
p33
F1.0
sS'ever'
p34
F0.3333333333333333
sS'airtel. very'
p35
F1.0
sS'boradband services.'
p36
F-1.0
sS'men'
p37
F1.0
sS'experience with airtel'
p38
F-1.0
sS'chosen !'
p39
F-1.0
sS'your technical'
p40
F-1.0
sS'business with'
p41
F1.0
sS'yes ,'
p42
F1.0
sS'prmotns hs'
p43
F-1.0
sS'days and nobody'
p44
F-1.0
sS'enjoy na'
p45
F-1.0
sS'fantastic'
p46
F1.0
sS'very comfortable'
p47
F1.0
sS'reliable nd'
p48
F1.0
sS'months you'
p49
F-1.0
sS'cheating'
p50
F-1.0
sS'would'
p51
F1.0
sS'airtel are'
p52
F-1.0
sS'in sierra leone'
p53
F1.0
sS'dnt'
p54
F-1.0
sS'are fair and'
p55
F1.0
sS'call'
p56
F0.0
sS'in sierra'
p57
F1.0
sS'i woudnt mind'
p58
F-1.0
sS'crdt anyhw'
p59
F-1.0
sS'is'
p60
F-0.07692307692307693
sS'proud of airtel'
p61
F1.0
sS'x promotion* is'
p62
F-1.0
sS'so smooth'
p63
F1.0
sS'why the'
p64
F1.0
sS'feel cheated by'
p65
F-1.0
sS'this foolish'
p66
F-1.0
sS'sothere4 keep'
p67
F1.0
sS'must'
p68
F1.0
sS'me'
p69
F-1.0
sS'word'
p70
F1.0
sS'cheapest'
p71
F1.0
sS'work'
p72
F1.0
sS'4 now.pls keep'
p73
F1.0
sS'thank you'
p74
F1.0
sS'disappointing.my'
p75
F-1.0
sS'my'
p76
F0.3333333333333333
sS', ur'
p77
F-1.0
sS'they keep to'
p78
F1.0
sS'only t b'
p79
F-1.0
sS'technical issues'
p80
F-1.0
sS'a very'
p81
F1.0
sS'keep'
p82
F0.7142857142857143
sS'be trusted'
p83
F-1.0
sS'end'
p84
F-1.0
sS'woudnt mind'
p85
F-1.0
sS'provide'
p86
F1.0
sS'services are'
p87
F-1.0
sS'came to'
p88
F-1.0
sS'great.fast and reliable.i'
p89
F1.0
sS'answer'
p90
F-1.0
sS'... am getting'
p91
F-1.0
sS'... .i'
p92
F1.0
sS'truthful'
p93
F1.0
sS'working in airtel'
p94
F-1.0
sS'r our'
p95
F1.0
sS'choice. i love'
p96
F1.0
sS'keep fit'
p97
F1.0
sS'network in nig'
p98
F1.0
sS'network wu'
p99
F-1.0
sS'wid grains only'
p100
F-1.0
sS'most worst line'
p101
F-1.0
sS'sevices you'
p102
F1.0
sS'dat cares'
p103
F1.0
sS'2 their promise'
p104
F-1.0
sS"are 'politely '"
p105
F-1.0
sS', a compassionate'
p106
F1.0
sS'alwys of'
p107
F-1.0
sS'`` its'
p108
F1.0
sS'worst'
p109
F-1.0
sS'very disappointing.my airtime'
p110
F-1.0
sS'in nigeria'
p111
F-1.0
sS'over'
p112
F1.0
sS'to services they'
p113
F-1.0
sS'fidelity'
p114
F1.0
sS'thy r'
p115
F-1.0
sS'provide .'
p116
F1.0
sS'of calling are'
p117
F1.0
sS'too much hrm'
p118
F-1.0
sS'd bomb'
p119
F1.0
sS','
p120
F0.4166666666666667
sS'is there'
p121
F1.0
sS'better'
p122
F0.3333333333333333
sS'fastest network in'
p123
F1.0
sS'getting fed-up with'
p124
F-1.0
sS'airtel and i'
p125
F1.0
sS'they'
p126
F-0.3333333333333333
sS', why'
p127
F-1.0
sS'. job'
p128
F1.0
sS'for your unconditional'
p129
F1.0
sS'better than dis'
p130
F1.0
sS'my favourite ,'
p131
F1.0
sS'reasonable'
p132
F1.0
sS'gone.i have'
p133
F-1.0
sS'nt 2'
p134
F-1.0
sS'in airtel'
p135
F-1.0
sS"fit . ''"
p136
F1.0
sS'a real'
p137
F1.0
sS'the network'
p138
F1.0
sS'dat cares about'
p139
F1.0
sS'chosen ! !'
p140
F-1.0
sS'sikced or airte'
p141
F-1.0
sS'have d'
p142
F1.0
sS'bis ...'
p143
F1.0
sS'network'
p144
F0.6153846153846154
sS'know may'
p145
F-1.0
sS'airtel kenya u'
p146
F1.0
sS'they have'
p147
F-1.0
sS're'
p148
F-1.0
sS'airtel , a'
p149
F1.0
sS'svc is very'
p150
F-1.0
sS'sincere network.'
p151
F1.0
sS', truely you'
p152
F1.0
sS'1 and'
p153
F1.0
sS'airtel kenya'
p154
F1.0
sS'reason y u'
p155
F-1.0
sS'is very poor'
p156
F-1.0
sS'free'
p157
F-1.0
sS'are rendering to'
p158
F1.0
sS'quality service .keep'
p159
F1.0
sS'alwys lyk'
p160
F-1.0
sS'pls do sumtin'
p161
F-1.0
sS'a vry'
p162
F1.0
sS'ntwk service'
p163
F1.0
sS'have the best'
p164
F1.0
sS'experience with'
p165
F-1.0
sS'yes , ahouse'
p166
F1.0
sS'days'
p167
F-1.0
sS'oh ... ...'
p168
F1.0
sS'in nig'
p169
F1.0
sS'so are'
p170
F-1.0
sS'is really enjoyable'
p171
F1.0
sS'most stupid'
p172
F-1.0
sS'keep on doin'
p173
F1.0
sS'end today !'
p174
F-1.0
sS'only easiest'
p175
F1.0
sS'of 1'
p176
F-1.0
sS'remov ma'
p177
F-1.0
sS'niger'
p178
F1.0
sS'network keep it'
p179
F1.0
sS'call &'
p180
F1.0
sS'i dnt'
p181
F-1.0
sS'customers.well'
p182
F1.0
sS'service'
p183
F0.0
sS'top'
p184
F1.0
sS'cares about'
p185
F1.0
sS'rates'
p186
F1.0
sS'too'
p187
F0.0
sS"gud . ''"
p188
F-1.0
sS'sorry to'
p189
F-1.0
sS'really enjoyable'
p190
F1.0
sS'anyhw'
p191
F-1.0
sS'matter'
p192
F-1.0
sS'cheated by airtel'
p193
F-1.0
sS'`` your'
p194
F-1.0
sS'mind'
p195
F-1.0
sS'be its people'
p196
F-1.0
sS'is open since'
p197
F-1.0
sS'word , thats'
p198
F1.0
sS'airtel , truely'
p199
F1.0
sS', thy'
p200
F-1.0
sS'of airtel network'
p201
F1.0
sS'! i'
p202
F-1.0
sS'sikced or'
p203
F-1.0
sS', sorry to'
p204
F-1.0
sS'airtel no'
p205
F1.0
sS'that'
p206
F0.0
sS'live .'
p207
F1.0
sS'friends .'
p208
F-1.0
sS'promotion*'
p209
F-1.0
sS'is called'
p210
F-1.0
sS'greatest'
p211
F1.0
sS'airtel boradband'
p212
F-1.0
sS'all 4 now.pls'
p213
F1.0
sS'doin'
p214
F1.0
sS'rubbish ! !'
p215
F-1.0
sS'mouth'
p216
F1.0
sS'or airte network'
p217
F-1.0
sS'3 days'
p218
F-1.0
sS'a my favourite'
p219
F1.0
sS'! !'
p220
F0.3333333333333333
sS'r doin'
p221
F1.0
sS'please stop'
p222
F-1.0
sS'came'
p223
F-1.0
sS'bomb'
p224
F1.0
sS'open since 3'
p225
F-1.0
sS'feel cheated'
p226
F-1.0
sS'may be its'
p227
F-1.0
sS'busy'
p228
F-1.0
sS', u a'
p229
F1.0
sS'momment. you'
p230
F1.0
sS'dont keep 2'
p231
F-1.0
sS'fastest network'
p232
F1.0
sS'out. usless network'
p233
F-1.0
sS'r robbers'
p234
F-1.0
sS', u r'
p235
F-1.0
sS'network its'
p236
F-1.0
sS'd widest coverage'
p237
F1.0
sS'it supposed'
p238
F-1.0
sS'do'
p239
F-1.0
sS'airtel , reliable'
p240
F1.0
sS'i love airtel'
p241
F1.0
sS'stop'
p242
F-1.0
sS', ntwk'
p243
F1.0
sS'why does it'
p244
F-1.0
sS'remov ma crdt'
p245
F-1.0
sS'airtel that sikced'
p246
F-1.0
sS'an end today'
p247
F-1.0
sS'airtel the'
p248
F1.0
sS'2their words .'
p249
F1.0
sS'bad'
p250
F-1.0
sS'guys remov ma'
p251
F-1.0
sS'thanks'
p252
F1.0
sS'best , voice'
p253
F1.0
sS'fair'
p254
F1.0
sS"i 'm"
p255
F1.0
sS'airtel network'
p256
F1.0
sS'when it'
p257
F-1.0
sS'! am'
p258
F1.0
sS'seriously ,'
p259
F-1.0
sS'later.ln sht'
p260
F-1.0
sS'your unconditional'
p261
F1.0
sS'best'
p262
F1.0
sS'netwrk'
p263
F-1.0
sS'are cheater'
p264
F-1.0
sS'solution to'
p265
F-1.0
sS'airtel very very'
p266
F1.0
sS'economical to'
p267
F1.0
sS'b cos of'
p268
F-1.0
sS'resolved .'
p269
F-1.0
sS'airtel network ...'
p270
F1.0
sS'wu'
p271
F-1.0
sS'improvn'
p272
F1.0
sS'services suck ,'
p273
F-1.0
sS'cos'
p274
F-1.0
sS'my best n'
p275
F1.0
sS', airtel ,'
p276
F1.0
sS'crdt'
p277
F-1.0
sS'better u'
p278
F-1.0
sS'very much'
p279
F1.0
sS'it up'
p280
F1.0
sS'of 1 min'
p281
F-1.0
sS'guyz r'
p282
F1.0
sS'days and'
p283
F-1.0
sS'subscribing'
p284
F-1.0
sS'na well done'
p285
F1.0
sS'frd'
p286
F1.0
sS'been'
p287
F0.0
sS'.'
p288
F0.375
sS'much'
p289
F0.0
sS'wack .'
p290
F-1.0
sS'lovely'
p291
F1.0
sS'you and so'
p292
F-1.0
sS'airtel is so'
p293
F1.0
sS'when it supposed'
p294
F-1.0
sS'this the'
p295
F1.0
sS'na rubbish ,'
p296
F-1.0
sS'services. my sr'
p297
F-1.0
sS'oh ...'
p298
F1.0
sS'; super super'
p299
F1.0
sS'the best ,'
p300
F1.0
sS'airtime has gone.i'
p301
F-1.0
sS'4 ua'
p302
F1.0
sS'network why'
p303
F1.0
sS'voice call &'
p304
F1.0
sS'n'
p305
F1.0
sS'the greatest'
p306
F1.0
sS'voice'
p307
F1.0
sS'net work'
p308
F1.0
sS'or airte'
p309
F-1.0
sS'it'
p310
F0.0
sS'u guys'
p311
F-1.0
sS'widest coverage'
p312
F1.0
sS'cant'
p313
F-1.0
sS'is no solution'
p314
F-1.0
sS'in'
p315
F0.5555555555555556
sS'has proper'
p316
F-1.0
sS'has all u'
p317
F1.0
sS'trusted'
p318
F-1.0
sS'the cheapest and'
p319
F1.0
sS'you provide'
p320
F1.0
sS'me on ma'
p321
F-1.0
sS'frd network na'
p322
F1.0
sS'hat u b'
p323
F-1.0
sS'.keep on .'
p324
F1.0
sS'proper answer'
p325
F-1.0
sS'd hottest'
p326
F1.0
sS'good network'
p327
F1.0
sS'now.pls'
p328
F1.0
sS'nig'
p329
F1.0
sS'nice doing business'
p330
F1.0
sS'at all'
p331
F1.0
sS'... keep on'
p332
F1.0
sS'thy'
p333
F-1.0
sS'r alwys'
p334
F-1.0
sS'thn'
p335
F-1.0
sS'calling are'
p336
F1.0
sS'mega x came'
p337
F-1.0
sS'the'
p338
F0.6
sS'solution to this'
p339
F-1.0
sS'just'
p340
F1.0
sS'naija. keep it'
p341
F1.0
sS'end today'
p342
F-1.0
sS'u guyz bis'
p343
F1.0
sS"abt dis ''"
p344
F-1.0
sS'thumbs'
p345
F1.0
sS'yes'
p346
F1.0
sS'your customers. your'
p347
F1.0
sS'worst line ,'
p348
F-1.0
sS'over naija. keep'
p349
F1.0
sS'on .'
p350
F1.0
sS'mind if mega'
p351
F-1.0
sS'and truthful'
p352
F1.0
sS'know may be'
p353
F-1.0
sS'has'
p354
F-0.3333333333333333
sS'hat'
p355
F-1.0
sS', network'
p356
F1.0
sS'is d'
p357
F1.0
sS'is a'
p358
F1.0
sS'alwys lyk atrcting'
p359
F-1.0
sS'doin dat'
p360
F1.0
sS'self ,'
p361
F-1.0
sS'govt'
p362
F-1.0
sS'2 their'
p363
F-1.0
sS'is the most'
p364
F-1.0
sS'airtel my'
p365
F1.0
sS'ba airtel'
p366
F-1.0
sS'i hat'
p367
F-1.0
sS'it out.'
p368
F-1.0
sS'reliable nd dependable'
p369
F1.0
sS'people'
p370
F-1.0
sS'thanked airtel'
p371
F1.0
sS'people working'
p372
F-1.0
sS', sothere4'
p373
F1.0
sS't b slghterd'
p374
F-1.0
sS'wad up airtel'
p375
F1.0
sS'`` yes ,'
p376
F1.0
sS'for'
p377
F1.0
sS'this is called'
p378
F-1.0
sS'exellent sevices'
p379
F1.0
sS'may be'
p380
F-1.0
sS'pls'
p381
F-1.0
sS'best frd network'
p382
F1.0
sS'been looking'
p383
F-1.0
sS'super'
p384
F1.0
sS'take you forever'
p385
F-1.0
sS'over naija.'
p386
F1.0
sS'months'
p387
F-1.0
sS'trustworthy'
p388
F1.0
sS'about it'
p389
F1.0
sS'are jus'
p390
F1.0
sS'are jus a'
p391
F1.0
sS'i guess'
p392
F-1.0
sS'rendering'
p393
F1.0
sS'sell it'
p394
F-1.0
sS'of too'
p395
F-1.0
sS'keep to their'
p396
F1.0
sS'not chosen'
p397
F-1.0
sS'words .'
p398
F1.0
sS'wad'
p399
F1.0
sS'its fake'
p400
F-1.0
sS'just enjoy the'
p401
F1.0
sS'momment.'
p402
F1.0
sS'network of choice.'
p403
F1.0
sS'are d hottest'
p404
F1.0
sS'nobody has proper'
p405
F-1.0
sS'my airtel network'
p406
F1.0
sS'by airtel'
p407
F-1.0
sS'offer'
p408
F1.0
sS'... ... .i'
p409
F1.0
sS'`` a real'
p410
F1.0
sS'! waste'
p411
F-1.0
sS'men ! !'
p412
F1.0
sS'true'
p413
F1.0
sS'real thing ,'
p414
F1.0
sS'use .'
p415
F1.0
sS'your customers.'
p416
F1.0
sS'use airtel'
p417
F1.0
sS'u sell'
p418
F-1.0
sS'keep it up'
p419
F1.0
sS'quality service'
p420
F1.0
sS'doin a vry'
p421
F1.0
sS'gone.i'
p422
F-1.0
sS"''"
p423
F0.29411764705882354
sS'the only'
p424
F1.0
sS'ntwork'
p425
F1.0
sS"dependable . ''"
p426
F1.0
sS'proper answer when'
p427
F-1.0
sS'not at'
p428
F1.0
sS'faithful'
p429
F1.0
sS'no'
p430
F-0.3333333333333333
sS'na'
p431
F0.0
sS'when'
p432
F-1.0
sS'done oh'
p433
F1.0
sS'us your'
p434
F-1.0
sS'nt'
p435
F-1.0
sS'rendering to your'
p436
F1.0
sS'ur'
p437
F-0.3333333333333333
sS'really enjoyin u'
p438
F1.0
sS"'m"
p439
F1.0
sS'service .keep on'
p440
F1.0
sS'me on'
p441
F-1.0
sS'the most stupid'
p442
F-1.0
sS"live . ''"
p443
F1.0
sS'cheated'
p444
F-1.0
sS'cheater'
p445
F-1.0
sS'reliable.i'
p446
F1.0
sS'enjoyin u guyz'
p447
F1.0
sS'sevices you provide'
p448
F1.0
sS'ur svc is'
p449
F-1.0
sS't b'
p450
F-1.0
sS'i no'
p451
F-1.0
sS'and i'
p452
F1.0
sS'has gone.i'
p453
F-1.0
sS'pathetic track'
p454
F-1.0
sS'i hat u'
p455
F-1.0
sS'customers.well done'
p456
F1.0
sS', thats fidelity'
p457
F1.0
sS'.i love airtel'
p458
F1.0
sS'choice'
p459
F1.0
sS'u r robbers'
p460
F-1.0
sS'its people'
p461
F-1.0
sS'ati mega'
p462
F-1.0
sS'ma'
p463
F-1.0
sS'you provide .'
p464
F1.0
sS'minute'
p465
F-1.0
sS'cos i'
p466
F-1.0
sS'gud'
p467
F0.0
sS'too good ,'
p468
F1.0
sS'open since'
p469
F-1.0
sS'is really'
p470
F1.0
sS'since 3 days'
p471
F-1.0
sS'solve your technical'
p472
F-1.0
sS'dis'
p473
F0.0
sS'airtel that'
p474
F-1.0
sS'be'
p475
F-0.3333333333333333
sS'u are jus'
p476
F1.0
sS'very very much'
p477
F1.0
sS'd hottest network'
p478
F1.0
sS'of calling'
p479
F1.0
sS'bb'
p480
F-1.0
sS'naija`s most'
p481
F1.0
sS'fantastic net work'
p482
F1.0
sS'ahouse of quality'
p483
F1.0
sS'thn gud'
p484
F-1.0
sS'fastest internet ever'
p485
F1.0
sS'hs alwys lyk'
p486
F-1.0
sS'ati mega x'
p487
F-1.0
sS'thing ,'
p488
F1.0
sS'a wonderful'
p489
F1.0
sS'u sell it'
p490
F-1.0
sS"' pathetic"
p491
F-1.0
sS'ma crdt'
p492
F-1.0
sS'the fastest internet'
p493
F1.0
sS'rates of calling'
p494
F1.0
sS'and nobody'
p495
F-1.0
sS'very good'
p496
F1.0
sS'love'
p497
F1.0
sS'so are my'
p498
F-1.0
sS', all'
p499
F1.0
sS'prefer'
p500
F1.0
sS'gud .'
p501
F-1.0
sS'bad experience with'
p502
F-1.0
sS'fake'
p503
F-1.0
sS'there is no'
p504
F-1.0
sS'working'
p505
F-1.0
sS'd worst netwrk'
p506
F-1.0
sS'live'
p507
F1.0
sS'network ... so'
p508
F1.0
sS'today'
p509
F-1.0
sS'superb ntwork'
p510
F1.0
sS'``'
p511
F0.29411764705882354
sS'4 ever.'
p512
F1.0
sS'love airtel no'
p513
F1.0
sS'network its better'
p514
F-1.0
sS'i loved airtel'
p515
F1.0
sS'easiest'
p516
F1.0
sS'are my'
p517
F-1.0
sS'all over'
p518
F1.0
sS', thats'
p519
F1.0
sS'your services'
p520
F-1.0
sS'came to an'
p521
F-1.0
sS'guys.stop using'
p522
F-1.0
sS'keep fit .'
p523
F1.0
sS'be its'
p524
F-1.0
sS'airtel'
p525
F0.631578947368421
sS'is open'
p526
F-1.0
sS'unconditional'
p527
F1.0
sS'customers to'
p528
F-1.0
sS'very bad experience'
p529
F-1.0
sS'ur svc'
p530
F-1.0
sS'my network of'
p531
F1.0
sS', ur prmotns'
p532
F-1.0
sS'best frd'
p533
F1.0
sS'congrt'
p534
F1.0
sS'ahouse of'
p535
F1.0
sS'thanks to'
p536
F1.0
sS'r doin a'
p537
F1.0
sS'and reliable.i love'
p538
F1.0
sS'later.ln'
p539
F-1.0
sS'supposed to get'
p540
F-1.0
sS'very much !'
p541
F1.0
sS'1'
p542
F0.0
sS'and reasonable thanks'
p543
F1.0
sS'x came'
p544
F-1.0
sS'stealing. poor'
p545
F-1.0
sS'may'
p546
F-1.0
sS'abt dis'
p547
F-1.0
sS'is very disappointing.my'
p548
F-1.0
sS'your customers'
p549
F-1.0
sS'guyz'
p550
F0.3333333333333333
sS'the best'
p551
F1.0
sS'suck'
p552
F-1.0
sS'guys'
p553
F-1.0
sS'sr'
p554
F-1.0
sS'so'
p555
F0.3333333333333333
sS'truely you'
p556
F1.0
sS'get resolved'
p557
F-1.0
sS'no.'
p558
F-1.0
sS'i feel'
p559
F-1.0
sS'rates of'
p560
F1.0
sS'customers to services'
p561
F-1.0
sS'issues affecting'
p562
F-1.0
sS'reasonable thanks to'
p563
F1.0
sS'promotion* is wack'
p564
F-1.0
sS'thank'
p565
F1.0
sS'4 ever. the'
p566
F1.0
sS'choice in'
p567
F1.0
sS'svc is'
p568
F-1.0
sS', thy r'
p569
F-1.0
sS'nt 2 be'
p570
F-1.0
sS'into'
p571
F-1.0
sS'airtel and'
p572
F1.0
sS'strongest network ever'
p573
F1.0
sS'am really'
p574
F1.0
sS', reliable'
p575
F1.0
sS'thy r alwys'
p576
F-1.0
sS'the only easiest'
p577
F1.0
sS'affecting us your'
p578
F-1.0
sS'not'
p579
F0.0
sS'x came to'
p580
F-1.0
sS'and so'
p581
F-1.0
sS'on doin'
p582
F1.0
sS'boradband'
p583
F-1.0
sS'rock'
p584
F1.0
sS'network. i loved'
p585
F1.0
sS'network. i'
p586
F1.0
sS'min plan'
p587
F-1.0
sS'real thing'
p588
F1.0
sS'looking'
p589
F-1.0
sS'very economical to'
p590
F1.0
sS'seriously'
p591
F-1.0
sS'internet'
p592
F1.0
sS', my'
p593
F1.0
sS"'too busy"
p594
F-1.0
sS'airtime has'
p595
F-1.0
sS'are d'
p596
F1.0
sS'nice ...'
p597
F1.0
sS'services you are'
p598
F1.0
sS'fidelity nextwrk'
p599
F1.0
sS'choice. i'
p600
F1.0
sS'care'
p601
F-1.0
sS'today ! waste'
p602
F-1.0
sS'doing business'
p603
F1.0
sS'thing'
p604
F1.0
sS'b slghterd'
p605
F-1.0
sS"'m proud of"
p606
F1.0
sS'in niger .'
p607
F1.0
sS"'re services"
p608
F-1.0
sS'open'
p609
F-1.0
sS'airtel the cheapest'
p610
F1.0
sS'my airtel'
p611
F1.0
sS'u need'
p612
F1.0
sS'2'
p613
F-0.3333333333333333
sS'extra airtel is'
p614
F1.0
sS'poor service'
p615
F-1.0
sS'looking into'
p616
F-1.0
sS'care sef'
p617
F-1.0
sS'to use airtel'
p618
F1.0
sS'than'
p619
F1.0
sS'is so faithful'
p620
F1.0
sS"last . ''"
p621
F1.0
sS'choice in data'
p622
F1.0
sS'at momment. you'
p623
F1.0
sS'*mega x'
p624
F-1.0
sS'r'
p625
F-0.2
sS'cool network'
p626
F1.0
sS'supposed to'
p627
F-1.0
sS'grains only t'
p628
F-1.0
sS'and'
p629
F0.5
sS'customers.'
p630
F1.0
sS'do sumtin'
p631
F-1.0
sS'say'
p632
F-1.0
sS'27114324 is'
p633
F-1.0
sS'any'
p634
F0.0
sS'poromotions ar always'
p635
F1.0
sS', sorry'
p636
F-1.0
sS'x atase its'
p637
F-1.0
sS'nd dependable .'
p638
F1.0
sS'solve your'
p639
F-1.0
sS'have the'
p640
F1.0
sS'take'
p641
F-1.0
sS'good network ,'
p642
F1.0
sS'dont know'
p643
F-1.0
sS'track'
p644
F-1.0
sS'the better'
p645
F1.0
sS'forever'
p646
F-1.0
sS'proud'
p647
F1.0
sS'nice doing'
p648
F1.0
sS'2gud'
p649
F1.0
sS'internet ever'
p650
F1.0
sS'ur poromotions'
p651
F1.0
sS'unconditional services'
p652
F1.0
sS'if mega'
p653
F-1.0
sS'sell it out.'
p654
F-1.0
sS'govt shld'
p655
F-1.0
sS'! this'
p656
F-1.0
sS'only'
p657
F0.0
sS'airtel you'
p658
F1.0
sS'sierra'
p659
F1.0
sS"you 're"
p660
F-1.0
sS'get'
p661
F-1.0
sS'bomb ,'
p662
F1.0
sS'really enjoyin'
p663
F1.0
sS'much hrm thn'
p664
F-1.0
sS'super ! !'
p665
F1.0
sS'poor .'
p666
F-1.0
sS'have d widest'
p667
F1.0
sS'atase its fake'
p668
F-1.0
sS'stupid'
p669
F-1.0
sS"mouth . ''"
p670
F1.0
sS'track no. 532946.'
p671
F-1.0
sS'2their'
p672
F1.0
sS"r robbers ''"
p673
F-1.0
sS'airtel is d'
p674
F1.0
sS'ever. the special'
p675
F1.0
sS'airtel is a'
p676
F1.0
sS'very good network'
p677
F1.0
sS'ma bb'
p678
F-1.0
sS', reliable nd'
p679
F1.0
sS'that sikced'
p680
F-1.0
sS'compassionate network'
p681
F1.0
sS'3'
p682
F-1.0
sS'indeed. rubbish'
p683
F-1.0
sS'bad experience'
p684
F-1.0
sS'affecting'
p685
F-1.0
sS'subscribing your'
p686
F-1.0
sS'clients ... ...'
p687
F-1.0
sS'shld pls do'
p688
F-1.0
sS'take you'
p689
F-1.0
sS'love you'
p690
F1.0
sS'why does'
p691
F-1.0
sS'fit'
p692
F1.0
sS'your rates'
p693
F1.0
sS'atrcting hen'
p694
F-1.0
sS'prmotns hs alwys'
p695
F-1.0
sS'u guyz are'
p696
F-1.0
sS'2 be trusted'
p697
F-1.0
sS'if there is'
p698
F-1.0
sS'voice call'
p699
F1.0
sS'in airtel that'
p700
F-1.0
sS'there is'
p701
F-1.0
sS'easiest line to'
p702
F1.0
sS"'ve been looking"
p703
F-1.0
sS'airtel mega'
p704
F-1.0
sS'for mouth .'
p705
F1.0
sS'a compassionate'
p706
F1.0
sS'cares'
p707
F1.0
sS'hottest network'
p708
F1.0
sS'dependable'
p709
F1.0
sS'bcom d'
p710
F-1.0
sS', trustworthy'
p711
F1.0
sS'for you'
p712
F1.0
sS'so faithful'
p713
F1.0
sS'network in niger'
p714
F1.0
sS'`` airtel is'
p715
F1.0
sS', just'
p716
F1.0
sS'matter !'
p717
F-1.0
sS"on . ''"
p718
F1.0
sS'you are'
p719
F1.0
sS'airtel will'
p720
F-1.0
sS'i feel cheated'
p721
F-1.0
sS'? not'
p722
F1.0
sS'airte network'
p723
F-1.0
sS'any line'
p724
F1.0
sS'sincere'
p725
F1.0
sS', a'
p726
F1.0
sS'the offer'
p727
F1.0
sS'guyz are'
p728
F-1.0
sS'`` seriously'
p729
F-1.0
sS'kenya'
p730
F1.0
sS', u'
p731
F0.0
sS'... ... keep'
p732
F1.0
sS'faithful and truthful'
p733
F1.0
sS"services are 'politely"
p734
F-1.0
sS'reasonable thanks'
p735
F1.0
sS'am getting'
p736
F-1.0
sS'keep d gud'
p737
F1.0
sS'stealing.'
p738
F-1.0
sS'airtel is really'
p739
F1.0
sS'dis ?'
p740
F1.0
sS'with airtel. very'
p741
F1.0
sS'! ! this'
p742
F-1.0
sS'and i thanked'
p743
F1.0
sS'i love'
p744
F1.0
sS'a must'
p745
F1.0
sS'dnt see'
p746
F-1.0
sS'your rates of'
p747
F1.0
sS'super !'
p748
F1.0
sS'to this network'
p749
F-1.0
sS'your customers to'
p750
F-1.0
sS'solve'
p751
F-1.0
sS'ya customer'
p752
F-1.0
sS'is wack'
p753
F-1.0
sS'this network'
p754
F-1.0
sS'ever. the'
p755
F1.0
sS'money'
p756
F1.0
sS'call & internet'
p757
F1.0
sS', voice'
p758
F1.0
sS'? not at'
p759
F1.0
sS'working in'
p760
F-1.0
sS'option .'
p761
F1.0
sS'widest'
p762
F1.0
sS'cos of 1'
p763
F-1.0
sS'much hrm'
p764
F-1.0
sS'4'
p765
F0.5
sS'its people working'
p766
F-1.0
sS'in niger'
p767
F1.0
sS'of airtel'
p768
F1.0
sS'real'
p769
F1.0
sS'does it'
p770
F-1.0
sS'alwys true'
p771
F1.0
sS'fit .'
p772
F1.0
sS'loved airtel'
p773
F1.0
sS'airtel network .'
p774
F1.0
sS'using'
p775
F-1.0
sS'in the'
p776
F1.0
sS'be for'
p777
F1.0
sS'matter ! i'
p778
F-1.0
sS"love you ''"
p779
F1.0
sS'sef na'
p780
F-1.0
sS"months you 've"
p781
F-1.0
sS'slghterd'
p782
F-1.0
sS'network its self'
p783
F-1.0
sS'true 2their'
p784
F1.0
sS'nigeria cos'
p785
F-1.0
sS'soon bcom d'
p786
F-1.0
sS'airtel u are'
p787
F1.0
sS't'
p788
F-1.0
sS'airtel ! am'
p789
F1.0
sS'services. my'
p790
F-1.0
sS'greatest network in'
p791
F1.0
sS'line , u'
p792
F-1.0
sS'532946. 4'
p793
F-1.0
sS'thumbs up'
p794
F1.0
sS'y u'
p795
F-1.0
sS'nextwrk'
p796
F1.0
sS'too much'
p797
F-1.0
sS'better u sell'
p798
F-1.0
sS', truely'
p799
F1.0
sS'boradband services. my'
p800
F-1.0
sS'dnt see any'
p801
F-1.0
sS'i love you'
p802
F1.0
sS'd gud work'
p803
F1.0
sS'customers. your rates'
p804
F1.0
sS'business'
p805
F1.0
sS'truely you have'
p806
F1.0
sS'if'
p807
F-1.0
sS'in data'
p808
F1.0
sS'on'
p809
F0.3333333333333333
sS'ur poromotions ar'
p810
F1.0
sS'called stealing.'
p811
F-1.0
sS'no. 532946. 4'
p812
F-1.0
sS'oh'
p813
F1.0
sS'of'
p814
F0.14285714285714285
sS'called stealing. poor'
p815
F-1.0
sS'extra airtel'
p816
F1.0
sS'or'
p817
F-1.0
sS'out.'
p818
F-1.0
sS'coverage at momment.'
p819
F1.0
sS'us your clients'
p820
F-1.0
sS'keep 2'
p821
F-1.0
sS'your'
p822
F-0.3333333333333333
sS', voice call'
p823
F1.0
sS'their promise'
p824
F-1.0
sS'sumtin'
p825
F-1.0
sS'there'
p826
F0.0
sS'gud work'
p827
F1.0
sS'would like to'
p828
F1.0
sS'wonderful network'
p829
F1.0
sS'hen'
p830
F-1.0
sS"'m proud"
p831
F1.0
sS'4 months'
p832
F-1.0
sS'fastest internet'
p833
F1.0
sS'seriously , why'
p834
F-1.0
sS'mouth .'
p835
F1.0
sS'jus'
p836
F1.0
sS'airtel d fidelity'
p837
F1.0
sS'services.'
p838
F-1.0
sS'and strongest network'
p839
F1.0
sS'with'
p840
F-0.3333333333333333
sS'real , trustworthy'
p841
F1.0
sS'mind if'
p842
F-1.0
sS'reason y'
p843
F-1.0
sS'about it customers.well'
p844
F1.0
sS'i guess your'
p845
F-1.0
sS'! i guess'
p846
F-1.0
sS'bis ... ...'
p847
F1.0
sS'you and'
p848
F-1.0
sS'and strongest'
p849
F1.0
sS'd fidelity nextwrk'
p850
F1.0
sS'b cos'
p851
F-1.0
sS'service indeed. rubbish'
p852
F-1.0
sS'to airtel'
p853
F1.0
sS'am'
p854
F0.3333333333333333
sS'an'
p855
F-1.0
sS'ar'
p856
F1.0
sS'at'
p857
F1.0
sS'alwys of too'
p858
F-1.0
sS'my friends'
p859
F-1.0
sS'for your'
p860
F1.0
sS'not at all'
p861
F1.0
sS'you'
p862
F0.3333333333333333
sS'line better'
p863
F1.0
sS'i would'
p864
F1.0
sS'poor'
p865
F-1.0
sS'airtel , u'
p866
F1.0
sS'any reason y'
p867
F-1.0
sS'reliable.i love airtel'
p868
F1.0
sS"robbers ''"
p869
F-1.0
sS'coverage'
p870
F1.0
sS'are my friends'
p871
F-1.0
sS'nd dependable'
p872
F1.0
sS'it live .'
p873
F1.0
sS'money saver .'
p874
F1.0
sS'internet , all'
p875
F1.0
sS'that has'
p876
F1.0
sS'u'
p877
F0.2
sS'network dat'
p878
F1.0
sS'with you'
p879
F-1.0
sS'all'
p880
F0.5
sS'd real thing'
p881
F1.0
sS'widest coverage at'
p882
F1.0
sS'people working in'
p883
F-1.0
sS'you for your'
p884
F1.0
sS'very very very'
p885
F-1.0
sS'atrcting hen wid'
p886
F-1.0
sS'to'
p887
F0.0
sS'your services suck'
p888
F-1.0
sS'airtel 4 ever.'
p889
F1.0
sS'is no'
p890
F-1.0
sS'ur prmotns hs'
p891
F-1.0
sS'all over naija.'
p892
F1.0
sS'very'
p893
F0.09090909090909091
sS'sumtin abt dis'
p894
F-1.0
sS'cool network ;'
p895
F1.0
sS"'too busy '"
p896
F-1.0
sS'to solve'
p897
F-1.0
sS'job !'
p898
F1.0
sS'532946.'
p899
F-1.0
sS'a very good'
p900
F1.0
sS'i thanked airtel'
p901
F1.0
sS'very disappointing.my'
p902
F-1.0
sS'my favourite'
p903
F1.0
sS'to say'
p904
F-1.0
sS'loved airtel and'
p905
F1.0
sS'will'
p906
F-1.0
sS'best n'
p907
F1.0
sS'airtel too good'
p908
F1.0
sS'their word'
p909
F1.0
sS"'too"
p910
F-1.0
sS'abt'
p911
F-1.0
sS'bad netwrk'
p912
F-1.0
sS'prefer airtel !'
p913
F1.0
sS'my friends .'
p914
F-1.0
sS'and reasonable'
p915
F1.0
sS'greatest network'
p916
F1.0
sS'there any line'
p917
F1.0
sS'rubbish !'
p918
F-1.0
sS'very sincere network.'
p919
F1.0
sS'd widest'
p920
F1.0
sS'usless network'
p921
F-1.0
sS'rubbish ,'
p922
F-1.0
sS'na well'
p923
F1.0
sS'by airtel .'
p924
F-1.0
sS'best ,'
p925
F1.0
sS'r alwys of'
p926
F-1.0
sS'u guyz'
p927
F0.3333333333333333
sS'enjoy the'
p928
F1.0
sS'trustworthy ,'
p929
F1.0
sS'experience'
p930
F-1.0
sS'& internet ,'
p931
F1.0
sS'customers.well done oh'
p932
F1.0
sS'to thank you'
p933
F1.0
sS'prefer airtel'
p934
F1.0
sS'soon bcom'
p935
F-1.0
sS'and fastest network'
p936
F1.0
sS'thats fidelity'
p937
F1.0
sS', very'
p938
F1.0
sS"you ''"
p939
F1.0
sS'ar always intresting'
p940
F1.0
sS'wit u'
p941
F1.0
sS'1 min plan'
p942
F-1.0
sS'network why the'
p943
F1.0
sS'cheater they re'
p944
F-1.0
sS'of quality'
p945
F1.0
sS'no solution to'
p946
F-1.0
sS'slghterd later.ln sht'
p947
F-1.0
sS'it live'
p948
F1.0
sS'for you .'
p949
F1.0
sS'great.fast and'
p950
F1.0
sS'airtel my best'
p951
F1.0
sS'lyk atrcting hen'
p952
F-1.0
sS'congrt 4 ua'
p953
F1.0
sS'naija.'
p954
F1.0
sS'ati'
p955
F-1.0
sS'!'
p956
F0.3
sS'up for airtel'
p957
F1.0
sS'keep to'
p958
F1.0
sS'unconditional services you'
p959
F1.0
sS'see any'
p960
F-1.0
sS'thing , airtel'
p961
F1.0
sS'customer care'
p962
F-1.0
sS'a'
p963
F1.0
sS'no solution'
p964
F-1.0
sS'worst line'
p965
F-1.0
sS'super super !'
p966
F1.0
sS'nigeria.zain ...'
p967
F1.0
sS", ''"
p968
F1.0
sS'na rubbish'
p969
F-1.0
sS'stealing. poor service'
p970
F-1.0
sS'soon'
p971
F-1.0
sS'network in nigeria.zain'
p972
F1.0
sS'its'
p973
F-0.6
sS'hat u'
p974
F-1.0
sS'! alwys true'
p975
F1.0
sS'4 ua exellent'
p976
F1.0
sS'ever .'
p977
F0.0
sS'cool'
p978
F1.0
sS'good'
p979
F1.0
sS'suck , sorry'
p980
F-1.0
sS'ya'
p981
F-1.0
sS'alwys true 2their'
p982
F1.0
sS"' pathetic track"
p983
F-1.0
sS'nigeria.zain'
p984
F1.0
sS'always'
p985
F1.0
sS', very economical'
p986
F1.0
sS'aitel ,'
p987
F-1.0
sS'super super'
p988
F1.0
sS'network wu dont'
p989
F-1.0
sS'27114324'
p990
F-1.0
sS'! alwys'
p991
F1.0
sS'i woudnt'
p992
F-1.0
sS'keep it live'
p993
F1.0
sS'would like'
p994
F1.0
sS'saver .'
p995
F1.0
sS'to your'
p996
F1.0
sS'are cheating me'
p997
F-1.0
sS'really'
p998
F1.0
sS'since'
p999
F-1.0
sS'd bomb ,'
p1000
F1.0
sS'sef na rubbish'
p1001
F-1.0
sS'very economical'
p1002
F1.0
sS'woudnt mind if'
p1003
F-1.0
sS'pathetic'
p1004
F-1.0
sS'they re nt'
p1005
F-1.0
sS'very poor .'
p1006
F-1.0
sS'reason'
p1007
F-1.0
sS'its been'
p1008
F1.0
sS'frd network'
p1009
F1.0
sS'sikced'
p1010
F-1.0
sS'fantastic net'
p1011
F1.0
sS'nextwrk !'
p1012
F1.0
sS'up airtel !'
p1013
F1.0
sS'dont'
p1014
F-1.0
sS'and so are'
p1015
F-1.0
sS'feel'
p1016
F-1.0
sS'u r'
p1017
F-0.3333333333333333
sS'sht , thy'
p1018
F-1.0
sS'free minute'
p1019
F-1.0
sS'guyz bis'
p1020
F1.0
sS'done'
p1021
F1.0
sS'network in'
p1022
F1.0
sS'anyhw nd'
p1023
F-1.0
sS'guyz are cheating'
p1024
F-1.0
sS'u b'
p1025
F-1.0
sS'netwrk in'
p1026
F-1.0
sS'guess'
p1027
F-1.0
sS'in the world'
p1028
F1.0
sS'strongest network'
p1029
F1.0
sS'u need ,'
p1030
F1.0
sS'keep 2 their'
p1031
F-1.0
sS'free minute i'
p1032
F-1.0
sS'to get'
p1033
F-1.0
sS'wonderful'
p1034
F1.0
sS'cheapest and fastest'
p1035
F1.0
sS'promotion* is'
p1036
F-1.0
sS'nigeria'
p1037
F-1.0
sS'atase'
p1038
F-1.0
sS'their word ,'
p1039
F1.0
sS'option'
p1040
F1.0
sS'u .'
p1041
F1.0
sS'u r the'
p1042
F-1.0
sS'been nice'
p1043
F1.0
sS'shld'
p1044
F-1.0
sS'for airtel .'
p1045
F1.0
sS'b'
p1046
F-1.0
sS'foolish network wu'
p1047
F-1.0
sS'if there'
p1048
F-1.0
sS'remov'
p1049
F-1.0
sS'supposed'
p1050
F-1.0
sS'bcom d worst'
p1051
F-1.0
sS'have not'
p1052
F-1.0
sS'naija`s most improvn'
p1053
F1.0
sS'; super'
p1054
F1.0
sS'sell'
p1055
F-1.0
sS'ma bb subscription'
p1056
F-1.0
sS'i would like'
p1057
F1.0
sS'self'
p1058
F-1.0
sS', if'
p1059
F-1.0
sS'better option .'
p1060
F1.0
sS'no be for'
p1061
F1.0
sS'of choice. i'
p1062
F1.0
sS'its self ,'
p1063
F-1.0
sS'network keep'
p1064
F1.0
sS'i cant'
p1065
F-1.0
sS'plan'
p1066
F-1.0
sS'services'
p1067
F-0.5
sS'usless'
p1068
F-1.0
sS'`` airtel'
p1069
F0.75
sS'2their words'
p1070
F1.0
sS". ''"
p1071
F0.38461538461538464
sS'dependable .'
p1072
F1.0
sS"are 'politely"
p1073
F-1.0
sS'ar always'
p1074
F1.0
sS'x promotion*'
p1075
F-1.0
sS'is very'
p1076
F-1.0
sS'my network'
p1077
F1.0
sS'care sef na'
p1078
F-1.0
sS'work am'
p1079
F1.0
sS'word ,'
p1080
F1.0
sS'keep it'
p1081
F1.0
sS'airtime'
p1082
F-1.0
sS'affecting us'
p1083
F-1.0
sS'guess your'
p1084
F-1.0
sS'loved'
p1085
F1.0
sS'network.'
p1086
F1.0
sS'am wit'
p1087
F1.0
sS'a my'
p1088
F1.0
sS'later.ln sht ,'
p1089
F-1.0
sS'fastest'
p1090
F1.0
sS'guys.stop using this'
p1091
F-1.0
sS'very sincere'
p1092
F1.0
sS'any reason'
p1093
F-1.0
sS', why does'
p1094
F-1.0
sS'x'
p1095
F-1.0
sS'kenya u r'
p1096
F1.0
sS'pathetic track no.'
p1097
F-1.0
sS'the better option'
p1098
F1.0
sS'a wonderful network'
p1099
F1.0
sS'x is very'
p1100
F-1.0
sS'only easiest line'
p1101
F1.0
sS'the special'
p1102
F1.0
sS'sef'
p1103
F-1.0
sS'see'
p1104
F-1.0
sS'aitel , ur'
p1105
F-1.0
sS'are'
p1106
F0.0
sS'netwrk in nigeria'
p1107
F-1.0
sS'na airtel'
p1108
F1.0
sS'it supposed to'
p1109
F-1.0
sS'cares about it'
p1110
F1.0
sS'please'
p1111
F-1.0
sS'grains only'
p1112
F-1.0
sS'our money saver'
p1113
F1.0
sS'great.fast'
p1114
F1.0
sS'cheating me'
p1115
F-1.0
sS'naija. keep'
p1116
F1.0
sS'guyz r doin'
p1117
F1.0
sS'! airtel'
p1118
F1.0
sS'mega'
p1119
F-1.0
sS'sr 27114324'
p1120
F-1.0
sS'that has all'
p1121
F1.0
sS', network in'
p1122
F1.0
sS'ur prmotns'
p1123
F-1.0
sS'in nigeria.zain ...'
p1124
F1.0
sS'has all'
p1125
F1.0
sS'nd ya customer'
p1126
F-1.0
sS'dis ? not'
p1127
F1.0
sS'have free'
p1128
F-1.0
sS'say .'
p1129
F-1.0
sS'r the'
p1130
F-1.0
sS'sorry to say'
p1131
F-1.0
sS'dat .'
p1132
F1.0
sS'you have the'
p1133
F1.0
sS'most worst'
p1134
F-1.0
sS"you 've been"
p1135
F-1.0
sS'stop subscribing your'
p1136
F-1.0
sS'internet ever in'
p1137
F1.0
sS'*mega'
p1138
F-1.0
sS'its self'
p1139
F-1.0
sS'lyk atrcting'
p1140
F-1.0
sS'special network. i'
p1141
F1.0
sS"you 've"
p1142
F-1.0
sS'3 days and'
p1143
F-1.0
sS'atase its'
p1144
F-1.0
sS'done oh ...'
p1145
F1.0
sS'bomb , ntwk'
p1146
F1.0
sS'grains'
p1147
F-1.0
sS'enjoy the network'
p1148
F1.0
sS'reliable'
p1149
F1.0
sS'into the'
p1150
F-1.0
sS'using this foolish'
p1151
F-1.0
sS'u na well'
p1152
F1.0
sS'hs alwys'
p1153
F-1.0
sS'our money'
p1154
F1.0
sS'sht ,'
p1155
F-1.0
sS'all u'
p1156
F1.0
sS"... . ''"
p1157
F1.0
sS'n fantastic'
p1158
F1.0
sS'this the only'
p1159
F1.0
sS'u na'
p1160
F1.0
sS'promo ever .'
p1161
F-1.0
sS'at all 4'
p1162
F1.0
sS'just enjoy'
p1163
F1.0
sS'hottest network in'
p1164
F1.0
sS'r our money'
p1165
F1.0
sS'shld pls'
p1166
F-1.0
sS'ntwk'
p1167
F1.0
sS'of too much'
p1168
F-1.0
sS'y u guys'
p1169
F-1.0
sS'.keep'
p1170
F1.0
sS"'politely '"
p1171
F-1.0
sS'favourite , sothere4'
p1172
F1.0
sS'all 4'
p1173
F1.0
sS'its better'
p1174
F-1.0
sS'network na'
p1175
F1.0
sS'2gud extra airtel'
p1176
F1.0
sS'... so'
p1177
F1.0
sS'... am'
p1178
F-1.0
sS'airte'
p1179
F-1.0
sS'last .'
p1180
F1.0
sS'is there any'
p1181
F1.0
sS'wonderful network keep'
p1182
F1.0
sS'to services'
p1183
F-1.0
sS'y'
p1184
F-1.0
sS'stop subscribing'
p1185
F-1.0
sS'ever in'
p1186
F1.0
sS'sr 27114324 is'
p1187
F-1.0
sS'leone'
p1188
F1.0
sS'my best'
p1189
F1.0
sS'suck ,'
p1190
F-1.0
sS'network , very'
p1191
F1.0
sS'network 2 enjoy'
p1192
F1.0
sS'an end'
p1193
F-1.0
sS'to get resolved'
p1194
F-1.0
sS'compassionate network dat'
p1195
F1.0
sS'world'
p1196
F1.0
sS'please stop subscribing'
p1197
F-1.0
sS'enjoyin u'
p1198
F1.0
sS'are cheater they'
p1199
F-1.0
sS'you forever to'
p1200
F-1.0
sS'extra'
p1201
F1.0
sS'stupid network of'
p1202
F-1.0
sS'service .keep'
p1203
F1.0
sS'that sikced or'
p1204
F-1.0
sS'i dnt see'
p1205
F-1.0
sS'...'
p1206
F0.7333333333333333
sS'customers'
p1207
F-1.0
sS'a vry nice'
p1208
F1.0
sS'poor service indeed.'
p1209
F-1.0
sS'truely'
p1210
F1.0
sS'network ever .'
p1211
F1.0
sS'airtel are cheater'
p1212
F-1.0
sS"'politely"
p1213
F-1.0
sS'4 months you'
p1214
F-1.0
sS'bis'
p1215
F1.0
sS'is called stealing.'
p1216
F-1.0
sS'd'
p1217
F0.75
sS'very bad'
p1218
F-1.0
sS"i 'm proud"
p1219
F1.0
sS"dis ''"
p1220
F-1.0
sS'enjoy na service'
p1221
F-1.0
sS'foolish'
p1222
F-1.0
sS'you .'
p1223
F1.0
sS'customer care sef'
p1224
F-1.0
sS"your 'too"
p1225
F-1.0
sS'strongest'
p1226
F1.0
sS'any line better'
p1227
F1.0
sS'all u need'
p1228
F1.0
sS"'ve"
p1229
F-1.0
sS'are fair'
p1230
F1.0
sS'for airtel'
p1231
F1.0
sS'fed-up'
p1232
F-1.0
sS'`` men'
p1233
F1.0
sS'u r our'
p1234
F1.0
sS'up airtel'
p1235
F1.0
sS'1 min'
p1236
F-1.0
sS'to an'
p1237
F-1.0
sS'x atase'
p1238
F-1.0
sS'doin a'
p1239
F1.0
sS'wad up'
p1240
F1.0
sS'ba'
p1241
F-1.0
sS'gone.i have free'
p1242
F-1.0
sS'i cant call'
p1243
F-1.0
sS'coverage at'
p1244
F1.0
sS'am getting fed-up'
p1245
F-1.0
sS'to this'
p1246
F-1.0
sS'reliable.i love'
p1247
F1.0
sS'better option'
p1248
F1.0
sS'by'
p1249
F-1.0
sS'niger .'
p1250
F1.0
sS'most'
p1251
F-0.3333333333333333
sS', trustworthy ,'
p1252
F1.0
sS'! ! !'
p1253
F0.5
sS'wid grains'
p1254
F-1.0
sS'today !'
p1255
F-1.0
sS'minute i'
p1256
F-1.0
sS'to thank'
p1257
F1.0
sS'i no enjoy'
p1258
F-1.0
sS"you . ''"
p1259
F1.0
sS'no enjoy na'
p1260
F-1.0
sS'been looking into'
p1261
F-1.0
sS'very very'
p1262
F-0.3333333333333333
sS'you are rendering'
p1263
F1.0
sS'aitel'
p1264
F-1.0
sS'now.pls keep'
p1265
F1.0
sS'line'
p1266
F0.5
sS'u guys remov'
p1267
F-1.0
sS'.i'
p1268
F1.0
sS'wit u .'
p1269
F1.0
sS'frnd'
p1270
F1.0
sS'up'
p1271
F1.0
sS'us'
p1272
F-1.0
sS'are rendering'
p1273
F1.0
sS'... .i love'
p1274
F1.0
sS'na service'
p1275
F-1.0
sS"'re"
p1276
F-1.0
sS'ua'
p1277
F1.0
sS'called'
p1278
F-1.0
sS'in nigeria cos'
p1279
F-1.0
sS'easiest line'
p1280
F1.0
sS'.i love'
p1281
F1.0
sS'network of'
p1282
F0.0
sS'lyk'
p1283
F-1.0
sS"'re services are"
p1284
F-1.0
sS'the cheapest'
p1285
F1.0
sS'wu dont'
p1286
F-1.0
sS"say . ''"
p1287
F-1.0
sS'frnd network'
p1288
F1.0
sS'ntwk service that'
p1289
F1.0
sS'nice'
p1290
F1.0
sS'bb subscription'
p1291
F-1.0
sS'favourite'
p1292
F1.0
sS'bcom'
p1293
F-1.0
sS'it out. usless'
p1294
F-1.0
sS'thank you for'
p1295
F1.0
sS'to say .'
p1296
F-1.0
sS', govt'
p1297
F-1.0
sS'532946. 4 months'
p1298
F-1.0
sS'has gone.i have'
p1299
F-1.0
sS'svc'
p1300
F-1.0
sS'using this'
p1301
F-1.0
sS'hrm thn gud'
p1302
F-1.0
sS'stupid network'
p1303
F-1.0
sS'it take'
p1304
F-1.0
sS'enjoyable'
p1305
F1.0
sS'issues'
p1306
F-1.0
sS'*mega x promotion*'
p1307
F-1.0
sS'prmotns'
p1308
F-1.0
sS'.keep on'
p1309
F1.0
sS'always intresting'
p1310
F1.0
sS'fed-up with you'
p1311
F-1.0
sS'2 enjoy'
p1312
F1.0
sS'... ...'
p1313
F0.7777777777777778
sS'guys remov'
p1314
F-1.0
sS'the offer last'
p1315
F1.0
sS'the matter !'
p1316
F-1.0
sS'to your customers.'
p1317
F1.0
sS'compassionate'
p1318
F1.0
sS'n fantastic net'
p1319
F1.0
sS'do sumtin abt'
p1320
F-1.0
sS'the network why'
p1321
F1.0
sS'work am wit'
p1322
F1.0
sS'naija`s'
p1323
F1.0
sS'keep on'
p1324
F1.0
sS'love airtel'
p1325
F1.0
sS'of all'
p1326
F-1.0
sS'see any reason'
p1327
F-1.0
sS'rubbish , govt'
p1328
F-1.0
sS'network ever'
p1329
F1.0
sS'u a my'
p1330
F1.0
sS'comfortable network'
p1331
F1.0
sS'it take you'
p1332
F-1.0
sS'better than'
p1333
F1.0
sS';'
p1334
F1.0
sS'my sr'
p1335
F-1.0
sS'network in the'
p1336
F1.0
sS'your technical issues'
p1337
F-1.0
sS'inproof ur'
p1338
F-1.0
sS'proud of'
p1339
F1.0
sS'top network'
p1340
F1.0
sS'economical to use'
p1341
F1.0
sS'airtel , my'
p1342
F1.0
sS'services they have'
p1343
F-1.0
sS'your clients ...'
p1344
F-1.0
sS'technical'
p1345
F-1.0
sS'jus a wonderful'
p1346
F1.0
sS'airtel you rock'
p1347
F1.0
sS'with airtel.'
p1348
F1.0
sS'thats'
p1349
F1.0
sS'robbers'
p1350
F-1.0
sS'wid'
p1351
F-1.0
sS'looking into the'
p1352
F-1.0
sS'nigeria.zain ... .'
p1353
F1.0
sS'airtel mega x'
p1354
F-1.0
sS'disappointing.my airtime has'
p1355
F-1.0
sS'wit'
p1356
F1.0
sS'to use'
p1357
F1.0
sS'indeed. rubbish !'
p1358
F-1.0
sS'hrm'
p1359
F-1.0
sS'use'
p1360
F1.0
sS'x is'
p1361
F-1.0
sS'are cheating'
p1362
F-1.0
sS'&'
p1363
F1.0
sS"your 'too busy"
p1364
F-1.0
sS'`` its been'
p1365
F1.0
sS'have free minute'
p1366
F-1.0
sS'like to thank'
p1367
F1.0
sS'u are d'
p1368
F1.0
sS'with airtel'
p1369
F-1.0
sS', govt shld'
p1370
F-1.0
sS'd frnd network'
p1371
F1.0
sS'rubbish'
p1372
F-1.0
sS'trusted guys.stop'
p1373
F-1.0
sS'subscription'
p1374
F-1.0
sS'customer'
p1375
F-1.0
sS'congrt 4'
p1376
F1.0
sS'this'
p1377
F-0.5
sS'clients'
p1378
F-1.0
sS'ua exellent sevices'
p1379
F1.0
sS'cheating me on'
p1380
F-1.0
sS'this is'
p1381
F-1.0
sS'27114324 is open'
p1382
F-1.0
sS'you rock'
p1383
F1.0
sS'your *mega x'
p1384
F-1.0
sS'your clients'
p1385
F-1.0
sS'minute i cant'
p1386
F-1.0
sS'and fastest'
p1387
F1.0
sS'cant call'
p1388
F-1.0
sS'cheated by'
p1389
F-1.0
sS'a must have'
p1390
F1.0
sS'only t'
p1391
F-1.0
sS'promo ever'
p1392
F-1.0
sS'! waste promo'
p1393
F-1.0
sS'if mega x'
p1394
F-1.0
sS'into the matter'
p1395
F-1.0
sS'am wit u'
p1396
F1.0
sS'cos of'
p1397
F-1.0
sS'the most worst'
p1398
F-1.0
sS'my sr 27114324'
p1399
F-1.0
sS'to an end'
p1400
F-1.0
sS'service indeed.'
p1401
F-1.0
sS'ua exellent'
p1402
F1.0
sS', my network'
p1403
F1.0
sS'`` aitel'
p1404
F-1.0
sS'chosen'
p1405
F-1.0
sS'anyhw nd ya'
p1406
F-1.0
sS'! this is'
p1407
F-1.0
sS'ya customer care'
p1408
F-1.0
sS'too good'
p1409
F1.0
sS'dat'
p1410
F1.0
sS'd real'
p1411
F1.0
sS'a real ,'
p1412
F1.0
sS'is wack .'
p1413
F-1.0
sS'd worst'
p1414
F-1.0
sS'on doin dat'
p1415
F1.0
sS'network ;'
p1416
F1.0
sS'the best frd'
p1417
F1.0
sS'line to'
p1418
F1.0
sS'network 2'
p1419
F1.0
sS'a compassionate network'
p1420
F1.0
sS'doin dat .'
p1421
F1.0
sS'ahouse'
p1422
F1.0
sS'doing'
p1423
F1.0
sS'service that'
p1424
F1.0
sS', just enjoy'
p1425
F1.0
sS'fair and reasonable'
p1426
F1.0
sS'slghterd later.ln'
p1427
F-1.0
sS'our'
p1428
F1.0
sS'out. usless'
p1429
F-1.0
sS'special'
p1430
F1.0
sS'usless network .'
p1431
F-1.0
sS'exellent sevices you'
p1432
F1.0
sS"'"
p1433
F-1.0
sS'`` airtel ,'
p1434
F1.0
sS'fed-up with'
p1435
F-1.0
sS'of quality service'
p1436
F1.0
sS'good , just'
p1437
F1.0
sS'up for'
p1438
F1.0
sS'... . job'
p1439
F1.0
sS'wack'
p1440
F-1.0
sS'... ... am'
p1441
F-1.0
sS'u guyz r'
p1442
F1.0
sS'nextwrk ! alwys'
p1443
F1.0
sS'internet ,'
p1444
F1.0
sS'... keep'
p1445
F1.0
sS'need ,'
p1446
F1.0
sS'! am really'
p1447
F1.0
sS"'ve been"
p1448
F-1.0
sS'`` yes'
p1449
F1.0
sS'airtel. very sincere'
p1450
F1.0
sS'inproof'
p1451
F-1.0
sS'your unconditional services'
p1452
F1.0
sS'r the most'
p1453
F-1.0
sS'enjoyin'
p1454
F1.0
sS'quality'
p1455
F1.0
sS'worst netwrk'
p1456
F-1.0
sS'worst netwrk in'
p1457
F-1.0
sS'data'
p1458
F1.0
sS'forever to'
p1459
F-1.0
sS'true 2their words'
p1460
F1.0
sS'their'
p1461
F0.0
sS'cheapest and'
p1462
F1.0
sS"need , ''"
p1463
F1.0
sS'poromotions ar'
p1464
F1.0
sS'nobody'
p1465
F-1.0
sS'men !'
p1466
F1.0
sS'of choice.'
p1467
F1.0
sS'network. they keep'
p1468
F1.0
sS'airtel no be'
p1469
F1.0
sS"busy '"
p1470
F-1.0
sS'i prefer'
p1471
F1.0
sS'ba airtel mega'
p1472
F-1.0
sS'fair and'
p1473
F1.0
sS'to solve your'
p1474
F-1.0
sS'good ,'
p1475
F1.0
sS'than dis'
p1476
F1.0
sS'`` airtel too'
p1477
F1.0
sS'keep d'
p1478
F1.0
sS'thanked airtel very'
p1479
F1.0
sS'favourite ,'
p1480
F1.0
sS'comfortable'
p1481
F1.0
sS'dont know may'
p1482
F-1.0
sS'sothere4'
p1483
F1.0
sS'alwys'
p1484
F-0.3333333333333333
sS'have'
p1485
F0.2
sS'need'
p1486
F1.0
sS'in nigeria.zain'
p1487
F1.0
sS'intresting'
p1488
F1.0
sS'answer when it'
p1489
F-1.0
sS'lovely line'
p1490
F1.0
sS'min'
p1491
F-1.0
sS'to use .'
p1492
F1.0
sS'they re'
p1493
F-1.0
sS'very comfortable network'
p1494
F1.0
sS'poromotions'
p1495
F1.0
sS'`` a'
p1496
F1.0
sS'must have network'
p1497
F1.0
sS'`` i'
p1498
F-1.0
sS'`` u'
p1499
F-1.0
sS'does it take'
p1500
F-1.0
sS'much ! !'
p1501
F1.0
sS'why'
p1502
F0.0
sS'on ma bb'
p1503
F-1.0
sS'hen wid'
p1504
F-1.0
sS'use airtel network'
p1505
F1.0
sS'improvn network'
p1506
F1.0
sS'thats fidelity for'
p1507
F1.0
sS"guess your 'too"
p1508
F-1.0
sS'track no.'
p1509
F-1.0
sS'ma crdt anyhw'
p1510
F-1.0
sS'hen wid grains'
p1511
F-1.0
sS'and reliable.i'
p1512
F1.0
sS'getting fed-up'
p1513
F-1.0
sS'2 enjoy .'
p1514
F1.0
sS'network dat cares'
p1515
F1.0
sS'd frnd'
p1516
F1.0
sS'very poor'
p1517
F-1.0
sS'the matter'
p1518
F-1.0
sS'at momment.'
p1519
F1.0
sS'words'
p1520
F1.0
sS'momment. you have'
p1521
F1.0
sS'sht'
p1522
F-1.0
sS'to their word'
p1523
F1.0
sS'calling'
p1524
F1.0
sS'forever to solve'
p1525
F-1.0
sS"network . ''"
p1526
F0.0
sS'waste promo'
p1527
F-1.0
sS'must have'
p1528
F1.0
sS'inproof ur svc'
p1529
F-1.0
sS'on ma'
p1530
F-1.0
sS'this network its'
p1531
F-1.0
sS'sumtin abt'
p1532
F-1.0
sS', sothere4 keep'
p1533
F1.0
sS'airtel boradband services.'
p1534
F-1.0
sS'i thanked'
p1535
F1.0
sS'your *mega'
p1536
F-1.0
sS'guyz bis ...'
p1537
F1.0
sS'i prefer airtel'
p1538
F1.0
sS'kenya u'
p1539
F1.0
sS'superb'
p1540
F1.0
sS'the greatest network'
p1541
F1.0
sS'exellent'
p1542
F1.0
sS'sevices'
p1543
F1.0
sS', all over'
p1544
F1.0
sS', if there'
p1545
F-1.0
sS'vry'
p1546
F1.0
sS'job'
p1547
F1.0
sS'is a very'
p1548
F1.0
sS'very very bad'
p1549
F-1.0
sS'offer last'
p1550
F1.0
sS'will soon'
p1551
F-1.0
sS'guys.stop'
p1552
F-1.0
sS'love airtel .'
p1553
F1.0
sS'nice ... .'
p1554
F1.0
sS'self , if'
p1555
F-1.0
sS'fidelity nextwrk !'
p1556
F1.0
sS'am really enjoyin'
p1557
F1.0
sS'sothere4 keep fit'
p1558
F1.0
sS'service that has'
p1559
F1.0
sS'd fidelity'
p1560
F1.0
sS', airtel'
p1561
F1.0
sS'line ,'
p1562
F-1.0
sS'you have'
p1563
F1.0
sS'much !'
p1564
F1.0
sS'rendering to'
p1565
F1.0
sS'thanked'
p1566
F1.0
sS'choice.'
p1567
F1.0
sS'airtel too'
p1568
F1.0
sS'the world'
p1569
F1.0
sS'hottest'
p1570
F1.0
sS'waste'
p1571
F-1.0
sS'. job !'
p1572
F1.0
sS'4 now.pls'
p1573
F1.0
sS'since 3'
p1574
F-1.0
sS'u b cos'
p1575
F-1.0
sS'not chosen !'
p1576
F-1.0
sS'is d real'
p1577
F1.0
sS'waste promo ever'
p1578
F-1.0
sS'govt shld pls'
p1579
F-1.0
sS'last'
p1580
F1.0
sS'... so smooth'
p1581
F1.0
sS'jus a'
p1582
F1.0
sS'airtel will soon'
p1583
F-1.0
sS'nd'
p1584
F0.0
sS'money saver'
p1585
F1.0
sS'airtel is'
p1586
F0.6666666666666666
sS'airtel d'
p1587
F1.0
sS'no. 532946.'
p1588
F-1.0
sS'u are'
p1589
F1.0
sS'doing business with'
p1590
F1.0
sS'd gud'
p1591
F1.0
sS'airtel u'
p1592
F1.0
sS'most stupid network'
p1593
F-1.0
sS'it customers.well done'
p1594
F1.0
sS'services they'
p1595
F-1.0
sS'the special network.'
p1596
F1.0
sS'network ...'
p1597
F1.0
sS'issues affecting us'
p1598
F-1.0
sS'been nice doing'
p1599
F1.0
sS'nd ya'
p1600
F-1.0
sS'for mouth'
p1601
F1.0
sS'hrm thn'
p1602
F-1.0
sS'this foolish network'
p1603
F-1.0
sS'airtel !'
p1604
F1.0
sS'promo'
p1605
F-1.0
sS'disappointing.my airtime'
p1606
F-1.0
sS'airtel .'
p1607
F0.3333333333333333
sS'airtel ,'
p1608
F1.0
sS'crdt anyhw nd'
p1609
F-1.0
sS'airtel 4'
p1610
F1.0
sS'i'
p1611
F-0.06666666666666667
sS'`` u r'
p1612
F-1.0
sS'well'
p1613
F1.0
sS', ahouse'
p1614
F1.0
sS'the fastest'
p1615
F1.0
sS'2gud extra'
p1616
F1.0
sS'offer last .'
p1617
F1.0
sS'! ! airtel'
p1618
F1.0
sS'calling are fair'
p1619
F1.0
sS'now.pls keep d'
p1620
F1.0
sS'is the'
p1621
F-1.0
sS', ahouse of'
p1622
F1.0
sS'you have d'
p1623
F1.0
sS'services suck'
p1624
F-1.0
sS'... ... ...'
p1625
F1.0
sS', ntwk service'
p1626
F1.0
sS'line to use'
p1627
F1.0
sS'than dis ?'
p1628
F1.0
sS'sierra leone'
p1629
F1.0
sS'top network in'
p1630
F1.0
sS'resolved'
p1631
F-1.0
sS'... .'
p1632
F1.0
sS'atrcting'
p1633
F-1.0
sS'`` airtel will'
p1634
F-1.0
sS'know'
p1635
F-1.0
sS"'politely ' pathetic"
p1636
F-1.0
sS'thn gud .'
p1637
F-1.0
sS'like to'
p1638
F1.0
sS'well done'
p1639
F1.0
sS'like'
p1640
F1.0
sS'`` i dont'
p1641
F-1.0
sS'business with airtel.'
p1642
F1.0
sS'the best choice'
p1643
F1.0
sS'best choice in'
p1644
F1.0
sS'foolish network'
p1645
F-1.0
sS'has proper answer'
p1646
F-1.0
sS'proper'
p1647
F-1.0
sS'b slghterd later.ln'
p1648
F-1.0
sS'subscribing your customers'
p1649
F-1.0
sS'be for mouth'
p1650
F1.0
sS'why the offer'
p1651
F1.0
sS'does'
p1652
F-1.0
sS'economical'
p1653
F1.0
sS'fidelity for'
p1654
F1.0
sS'be trusted guys.stop'
p1655
F-1.0
sS'with you and'
p1656
F-1.0
sS'nobody has'
p1657
F-1.0
sS'?'
p1658
F1.0
sS'network .'
p1659
F0.0
sS'network ; super'
p1660
F1.0
sS'best choice'
p1661
F1.0
sS'sincere network. they'
p1662
F1.0
sS'network ,'
p1663
F1.0
sS'best n fantastic'
p1664
F1.0
sS'most improvn network'
p1665
F1.0
sS'clients ...'
p1666
F-1.0
sS'about'
p1667
F1.0
sS'getting'
p1668
F-1.0
sS'mega x'
p1669
F-1.0
sS'is d bomb'
p1670
F1.0
sS'real ,'
p1671
F1.0
sS'will soon bcom'
p1672
F-1.0
sS"friends . ''"
p1673
F-1.0
sS'thumbs up for'
p1674
F1.0
sS'promise'
p1675
F-1.0
sS'and nobody has'
p1676
F-1.0
sS'with airtel boradband'
p1677
F-1.0
sS'airtel.'
p1678
F1.0
sS'its been nice'
p1679
F1.0
sS'cos i dnt'
p1680
F-1.0
sS'i loved'
p1681
F1.0
sS'nigeria cos i'
p1682
F-1.0
sS'min plan .'
p1683
F-1.0
sS're nt 2'
p1684
F-1.0
sS'& internet'
p1685
F1.0
sS'wu dont keep'
p1686
F-1.0
sS'hs'
p1687
F-1.0
sS'special network.'
p1688
F1.0
sS'plan .'
p1689
F-1.0
sS'`` your services'
p1690
F-1.0
sS'no enjoy'
p1691
F-1.0
sS'1 and strongest'
p1692
F1.0
sS'services you'
p1693
F1.0
sS'have not chosen'
p1694
F-1.0
sS'smooth'
p1695
F1.0
sS'to their'
p1696
F1.0
sS'`` seriously ,'
p1697
F-1.0
sS'thanks to airtel'
p1698
F1.0
sS're nt'
p1699
F-1.0
sS'i dont'
p1700
F-1.0
sS'vry nice'
p1701
F1.0
sS'so faithful and'
p1702
F1.0
sS'pls do'
p1703
F-1.0
sS'you for'
p1704
F1.0
sS'airtel very'
p1705
F1.0
sS'`` men !'
p1706
F1.0
sS'cheater they'
p1707
F-1.0
sS'airtel is the'
p1708
F-1.0
sS'airte network its'
p1709
F-1.0
sS'is so'
p1710
F1.0
sS'trustworthy , network'
p1711
F1.0
sS'customers. your'
p1712
F1.0
sS'indeed.'
p1713
F-1.0
sS'ever in sierra'
p1714
F1.0
sS'get resolved .'
p1715
F-1.0
sS'friends'
p1716
F-1.0
sS'dont keep'
p1717
F-1.0
sS'answer when'
p1718
F-1.0
sS'there any'
p1719
F1.0
sS'have network'
p1720
F1.0
sS'! airtel is'
p1721
F1.0
s.